; Function Attrs: mustprogress nounwind uwtable
define internal void @_ZNK12_GLOBAL__N_114SimpleArgument14writeAccessorsERN4llvm11raw_ostreamE(ptr noundef nonnull align 8 dereferenceable(128) %0, ptr noundef nonnull align 8 dereferenceable(48) %1) unnamed_addr #0 align 2 {
  %3 = getelementptr inbounds nuw i8, ptr %1, i64 24
  %4 = load ptr, ptr %3, align 8
  %5 = getelementptr inbounds nuw i8, ptr %1, i64 32
  %6 = load ptr, ptr %5, align 8
  %7 = ptrtoint ptr %4 to i64
  %8 = ptrtoint ptr %6 to i64
  %9 = sub i64 %7, %8
  %10 = icmp ult i64 %9, 2
  br i1 %10, label %11, label %13

11:                                               ; preds = %2
  %12 = tail call noundef nonnull align 8 dereferenceable(48) ptr @_ZN4llvm11raw_ostream5writeEPKcm(ptr noundef nonnull align 8 dereferenceable(48) %1, ptr noundef nonnull @.str.314, i64 noundef 2) #22
  br label %_ZN4llvm11raw_ostreamlsEPKc.exit

13:                                               ; preds = %2
  store i16 8224, ptr %6, align 1
  %14 = load ptr, ptr %5, align 8
  %15 = getelementptr inbounds i8, ptr %14, i64 2
  store ptr %15, ptr %5, align 8
  br label %_ZN4llvm11raw_ostreamlsEPKc.exit

_ZN4llvm11raw_ostreamlsEPKc.exit:                 ; preds = %11, %13
  %.0.i.i = phi ptr [ %12, %11 ], [ %1, %13 ]
  %16 = getelementptr inbounds nuw i8, ptr %0, i64 96
  %17 = tail call noundef ptr @_ZNKSt7__cxx1112basic_stringIcSt11char_traitsIcESaIcEE4dataEv(ptr noundef nonnull align 8 dereferenceable(32) %16) #22
  %18 = tail call noundef i64 @_ZNKSt7__cxx1112basic_stringIcSt11char_traitsIcESaIcEE6lengthEv(ptr noundef nonnull align 8 dereferenceable(32) %16) #22
  %19 = tail call noundef nonnull align 8 dereferenceable(48) ptr @_ZN4llvm11raw_ostream5writeEPKcm(ptr noundef nonnull align 8 dereferenceable(48) %.0.i.i, ptr noundef %17, i64 noundef %18) #22
  %20 = getelementptr inbounds nuw i8, ptr %19, i64 24
  %21 = load ptr, ptr %20, align 8
  %22 = getelementptr inbounds nuw i8, ptr %19, i64 32
  %23 = load ptr, ptr %22, align 8
  %24 = ptrtoint ptr %21 to i64
  %25 = ptrtoint ptr %23 to i64
  %26 = sub i64 %24, %25
  %27 = icmp ult i64 %26, 4
  br i1 %27, label %28, label %30

28:                                               ; preds = %_ZN4llvm11raw_ostreamlsEPKc.exit
  %29 = tail call noundef nonnull align 8 dereferenceable(48) ptr @_ZN4llvm11raw_ostream5writeEPKcm(ptr noundef nonnull align 8 dereferenceable(48) %19, ptr noundef nonnull @.str.659, i64 noundef 4) #22
  br label %_ZN4llvm11raw_ostreamlsEPKc.exit8

30:                                               ; preds = %_ZN4llvm11raw_ostreamlsEPKc.exit
  store i32 1952802592, ptr %23, align 1
  %31 = load ptr, ptr %22, align 8
  %32 = getelementptr inbounds i8, ptr %31, i64 4
  store ptr %32, ptr %22, align 8
  br label %_ZN4llvm11raw_ostreamlsEPKc.exit8

_ZN4llvm11raw_ostreamlsEPKc.exit8:                ; preds = %28, %30
  %.0.i.i7 = phi ptr [ %29, %28 ], [ %19, %30 ]
  %33 = getelementptr inbounds nuw i8, ptr %0, i64 40
  %34 = tail call noundef ptr @_ZNKSt7__cxx1112basic_stringIcSt11char_traitsIcESaIcEE4dataEv(ptr noundef nonnull align 8 dereferenceable(32) %33) #22
  %35 = tail call noundef i64 @_ZNKSt7__cxx1112basic_stringIcSt11char_traitsIcESaIcEE6lengthEv(ptr noundef nonnull align 8 dereferenceable(32) %33) #22
  %36 = getelementptr inbounds nuw i8, ptr %.0.i.i7, i64 24
  %37 = load ptr, ptr %36, align 8
  %38 = getelementptr inbounds nuw i8, ptr %.0.i.i7, i64 32
  %39 = load ptr, ptr %38, align 8
  %40 = ptrtoint ptr %37 to i64
  %41 = ptrtoint ptr %39 to i64
  %42 = sub i64 %40, %41
  %43 = icmp ugt i64 %35, %42
  br i1 %43, label %44, label %46

44:                                               ; preds = %_ZN4llvm11raw_ostreamlsEPKc.exit8
  %45 = tail call noundef nonnull align 8 dereferenceable(48) ptr @_ZN4llvm11raw_ostream5writeEPKcm(ptr noundef nonnull align 8 dereferenceable(48) %.0.i.i7, ptr noundef %34, i64 noundef %35) #22
  %.phi.trans.insert = getelementptr inbounds nuw i8, ptr %45, i64 32
  %.pre = load ptr, ptr %.phi.trans.insert, align 8
  br label %_ZN4llvm11raw_ostreamlsENS_9StringRefE.exit

46:                                               ; preds = %_ZN4llvm11raw_ostreamlsEPKc.exit8
  %.not.i = icmp eq i64 %35, 0
  br i1 %.not.i, label %_ZN4llvm11raw_ostreamlsENS_9StringRefE.exit, label %47

47:                                               ; preds = %46
  tail call void @llvm.memcpy.p0.p0.i64(ptr align 1 %39, ptr align 1 %34, i64 %35, i1 false)
  %48 = load ptr, ptr %38, align 8
  %49 = getelementptr inbounds i8, ptr %48, i64 %35
  store ptr %49, ptr %38, align 8
  br label %_ZN4llvm11raw_ostreamlsENS_9StringRefE.exit

_ZN4llvm11raw_ostreamlsENS_9StringRefE.exit:      ; preds = %44, %46, %47
  %50 = phi ptr [ %.pre, %44 ], [ %49, %47 ], [ %39, %46 ]
  %.0.i = phi ptr [ %45, %44 ], [ %.0.i.i7, %47 ], [ %.0.i.i7, %46 ]
  %51 = getelementptr inbounds nuw i8, ptr %.0.i, i64 24
  %52 = load ptr, ptr %51, align 8
  %53 = ptrtoint ptr %52 to i64
  %54 = ptrtoint ptr %50 to i64
  %55 = sub i64 %53, %54
  %56 = icmp ult i64 %55, 11
  br i1 %56, label %57, label %59

57:                                               ; preds = %_ZN4llvm11raw_ostreamlsENS_9StringRefE.exit
  %58 = tail call noundef nonnull align 8 dereferenceable(48) ptr @_ZN4llvm11raw_ostream5writeEPKcm(ptr noundef nonnull align 8 dereferenceable(48) %.0.i, ptr noundef nonnull @.str.660, i64 noundef 11) #22
  br label %_ZN4llvm11raw_ostreamlsEPKc.exit11

59:                                               ; preds = %_ZN4llvm11raw_ostreamlsENS_9StringRefE.exit
  %60 = getelementptr inbounds nuw i8, ptr %.0.i, i64 32
  tail call void @llvm.memcpy.p0.p0.i64(ptr noundef nonnull align 1 dereferenceable(11) %50, ptr noundef nonnull align 1 dereferenceable(11) @.str.660, i64 11, i1 false)
  %61 = load ptr, ptr %60, align 8
  %62 = getelementptr inbounds i8, ptr %61, i64 11
  store ptr %62, ptr %60, align 8
  br label %_ZN4llvm11raw_ostreamlsEPKc.exit11

_ZN4llvm11raw_ostreamlsEPKc.exit11:               ; preds = %57, %59
  %63 = load ptr, ptr %3, align 8
  %64 = load ptr, ptr %5, align 8
  %65 = ptrtoint ptr %63 to i64
  %66 = ptrtoint ptr %64 to i64
  %67 = sub i64 %65, %66
  %68 = icmp ult i64 %67, 11
  br i1 %68, label %69, label %71

69:                                               ; preds = %_ZN4llvm11raw_ostreamlsEPKc.exit11
  %70 = tail call noundef nonnull align 8 dereferenceable(48) ptr @_ZN4llvm11raw_ostream5writeEPKcm(ptr noundef nonnull align 8 dereferenceable(48) %1, ptr noundef nonnull @.str.572, i64 noundef 11) #22
  br label %_ZN4llvm11raw_ostreamlsEPKc.exit14

71:                                               ; preds = %_ZN4llvm11raw_ostreamlsEPKc.exit11
  tail call void @llvm.memcpy.p0.p0.i64(ptr noundef nonnull align 1 dereferenceable(11) %64, ptr noundef nonnull align 1 dereferenceable(11) @.str.572, i64 11, i1 false)
  %72 = load ptr, ptr %5, align 8
  %73 = getelementptr inbounds i8, ptr %72, i64 11
  store ptr %73, ptr %5, align 8
  br label %_ZN4llvm11raw_ostreamlsEPKc.exit14

_ZN4llvm11raw_ostreamlsEPKc.exit14:               ; preds = %69, %71
  %.0.i.i13 = phi ptr [ %70, %69 ], [ %1, %71 ]
  %74 = getelementptr inbounds nuw i8, ptr %0, i64 8
  %75 = tail call noundef ptr @_ZNKSt7__cxx1112basic_stringIcSt11char_traitsIcESaIcEE4dataEv(ptr noundef nonnull align 8 dereferenceable(32) %74) #22
  %76 = tail call noundef i64 @_ZNKSt7__cxx1112basic_stringIcSt11char_traitsIcESaIcEE6lengthEv(ptr noundef nonnull align 8 dereferenceable(32) %74) #22
  %77 = getelementptr inbounds nuw i8, ptr %.0.i.i13, i64 24
  %78 = load ptr, ptr %77, align 8
  %79 = getelementptr inbounds nuw i8, ptr %.0.i.i13, i64 32
  %80 = load ptr, ptr %79, align 8
  %81 = ptrtoint ptr %78 to i64
  %82 = ptrtoint ptr %80 to i64
  %83 = sub i64 %81, %82
  %84 = icmp ugt i64 %76, %83
  br i1 %84, label %85, label %87

85:                                               ; preds = %_ZN4llvm11raw_ostreamlsEPKc.exit14
  %86 = tail call noundef nonnull align 8 dereferenceable(48) ptr @_ZN4llvm11raw_ostream5writeEPKcm(ptr noundef nonnull align 8 dereferenceable(48) %.0.i.i13, ptr noundef %75, i64 noundef %76) #22
  %.phi.trans.insert26 = getelementptr inbounds nuw i8, ptr %86, i64 32
  %.pre27 = load ptr, ptr %.phi.trans.insert26, align 8
  br label %_ZN4llvm11raw_ostreamlsENS_9StringRefE.exit19

87:                                               ; preds = %_ZN4llvm11raw_ostreamlsEPKc.exit14
  %.not.i17 = icmp eq i64 %76, 0
  br i1 %.not.i17, label %_ZN4llvm11raw_ostreamlsENS_9StringRefE.exit19, label %88

88:                                               ; preds = %87
  tail call void @llvm.memcpy.p0.p0.i64(ptr align 1 %80, ptr align 1 %75, i64 %76, i1 false)
  %89 = load ptr, ptr %79, align 8
  %90 = getelementptr inbounds i8, ptr %89, i64 %76
  store ptr %90, ptr %79, align 8
  br label %_ZN4llvm11raw_ostreamlsENS_9StringRefE.exit19

_ZN4llvm11raw_ostreamlsENS_9StringRefE.exit19:    ; preds = %85, %87, %88
  %91 = phi ptr [ %.pre27, %85 ], [ %90, %88 ], [ %80, %87 ]
  %.0.i18 = phi ptr [ %86, %85 ], [ %.0.i.i13, %88 ], [ %.0.i.i13, %87 ]
  %92 = getelementptr inbounds nuw i8, ptr %.0.i18, i64 24
  %93 = load ptr, ptr %92, align 8
  %94 = ptrtoint ptr %93 to i64
  %95 = ptrtoint ptr %91 to i64
  %96 = sub i64 %94, %95
  %97 = icmp ult i64 %96, 2
  br i1 %97, label %98, label %100

98:                                               ; preds = %_ZN4llvm11raw_ostreamlsENS_9StringRefE.exit19
  %99 = tail call noundef nonnull align 8 dereferenceable(48) ptr @_ZN4llvm11raw_ostream5writeEPKcm(ptr noundef nonnull align 8 dereferenceable(48) %.0.i18, ptr noundef nonnull @.str.5, i64 noundef 2) #22
  br label %_ZN4llvm11raw_ostreamlsEPKc.exit22

100:                                              ; preds = %_ZN4llvm11raw_ostreamlsENS_9StringRefE.exit19
  %101 = getelementptr inbounds nuw i8, ptr %.0.i18, i64 32
  store i16 2619, ptr %91, align 1
  %102 = load ptr, ptr %101, align 8
  %103 = getelementptr inbounds i8, ptr %102, i64 2
  store ptr %103, ptr %101, align 8
  br label %_ZN4llvm11raw_ostreamlsEPKc.exit22

_ZN4llvm11raw_ostreamlsEPKc.exit22:               ; preds = %98, %100
  %104 = load ptr, ptr %3, align 8
  %105 = load ptr, ptr %5, align 8
  %106 = ptrtoint ptr %104 to i64
  %107 = ptrtoint ptr %105 to i64
  %108 = sub i64 %106, %107
  %109 = icmp ult i64 %108, 3
  br i1 %109, label %110, label %112

110:                                              ; preds = %_ZN4llvm11raw_ostreamlsEPKc.exit22
  %111 = tail call noundef nonnull align 8 dereferenceable(48) ptr @_ZN4llvm11raw_ostream5writeEPKcm(ptr noundef nonnull align 8 dereferenceable(48) %1, ptr noundef nonnull @.str.577, i64 noundef 3) #22
  br label %_ZN4llvm11raw_ostreamlsEPKc.exit25

112:                                              ; preds = %_ZN4llvm11raw_ostreamlsEPKc.exit22
  tail call void @llvm.memcpy.p0.p0.i64(ptr noundef nonnull align 1 dereferenceable(3) %105, ptr noundef nonnull align 1 dereferenceable(3) @.str.577, i64 3, i1 false)
  %113 = load ptr, ptr %5, align 8
  %114 = getelementptr inbounds i8, ptr %113, i64 3
  store ptr %114, ptr %5, align 8
  br label %_ZN4llvm11raw_ostreamlsEPKc.exit25

_ZN4llvm11raw_ostreamlsEPKc.exit25:               ; preds = %110, %112
  ret void
}